; ModuleID = '53/585.c'
source_filename = "53/585.c"
target datalayout = "e-m:e-p270:32:32-p271:32:32-p272:64:64-i64:64-f80:128-n8:16:32:64-S128"
target triple = "x86_64-pc-linux-gnu"

@.str = private unnamed_addr constant [3 x i8] c"%d\00", align 1
@.str.1 = private unnamed_addr constant [4 x i8] c",%d\00", align 1

; Function Attrs: noinline nounwind uwtable
define dso_local void @main() #0 {
  %1 = alloca i32, align 4
  %2 = alloca i32, align 4
  %3 = alloca i32, align 4
  %4 = alloca i32, align 4
  %5 = alloca [300 x i8], align 16
  %6 = alloca i8*, align 8
  %7 = alloca i8*, align 8
  %8 = call i32 (i8*, ...) @__isoc99_scanf(i8* getelementptr inbounds ([3 x i8], [3 x i8]* @.str, i64 0, i64 0), i32* %2)
  store i32 0, i32* %1, align 4
  br label %9

9:                                                ; preds = %18, %0
  %10 = load i32, i32* %1, align 4
  %11 = load i32, i32* %2, align 4
  %12 = icmp slt i32 %10, %11
  br i1 %12, label %13, label %21

13:                                               ; preds = %9
  %14 = load i32, i32* %1, align 4
  %15 = sext i32 %14 to i64
  %16 = getelementptr inbounds [300 x i8], [300 x i8]* %5, i64 0, i64 %15
  %17 = call i32 (i8*, ...) @__isoc99_scanf(i8* getelementptr inbounds ([3 x i8], [3 x i8]* @.str, i64 0, i64 0), i8* %16)
  br label %18

18:                                               ; preds = %13
  %19 = load i32, i32* %1, align 4
  %20 = add nsw i32 %19, 1
  store i32 %20, i32* %1, align 4
  br label %9

21:                                               ; preds = %9
  %22 = getelementptr inbounds [300 x i8], [300 x i8]* %5, i64 0, i64 0
  %23 = call i64 @strlen(i8* %22) #3
  %24 = trunc i64 %23 to i32
  store i32 %24, i32* %3, align 4
  %25 = getelementptr inbounds [300 x i8], [300 x i8]* %5, i64 0, i64 0
  store i8* %25, i8** %6, align 8
  br label %26

26:                                               ; preds = %78, %21
  %27 = load i8*, i8** %6, align 8
  %28 = getelementptr inbounds [300 x i8], [300 x i8]* %5, i64 0, i64 0
  %29 = load i32, i32* %3, align 4
  %30 = sext i32 %29 to i64
  %31 = getelementptr inbounds i8, i8* %28, i64 %30
  %32 = icmp ult i8* %27, %31
  br i1 %32, label %33, label %81

33:                                               ; preds = %26
  store i32 1, i32* %4, align 4
  %34 = getelementptr inbounds [300 x i8], [300 x i8]* %5, i64 0, i64 0
  store i8* %34, i8** %7, align 8
  br label %35

35:                                               ; preds = %49, %33
  %36 = load i8*, i8** %7, align 8
  %37 = load i8*, i8** %6, align 8
  %38 = icmp ult i8* %36, %37
  br i1 %38, label %39, label %52

39:                                               ; preds = %35
  %40 = load i8*, i8** %7, align 8
  %41 = load i8, i8* %40, align 1
  %42 = sext i8 %41 to i32
  %43 = load i8*, i8** %6, align 8
  %44 = load i8, i8* %43, align 1
  %45 = sext i8 %44 to i32
  %46 = icmp eq i32 %42, %45
  br i1 %46, label %47, label %48

47:                                               ; preds = %39
  store i32 0, i32* %4, align 4
  br label %52

48:                                               ; preds = %39
  br label %49

49:                                               ; preds = %48
  %50 = load i8*, i8** %7, align 8
  %51 = getelementptr inbounds i8, i8* %50, i32 1
  store i8* %51, i8** %7, align 8
  br label %35

52:                                               ; preds = %47, %35
  %53 = load i32, i32* %4, align 4
  %54 = icmp eq i32 %53, 1
  br i1 %54, label %55, label %64

55:                                               ; preds = %52
  %56 = load i8*, i8** %6, align 8
  %57 = getelementptr inbounds [300 x i8], [300 x i8]* %5, i64 0, i64 0
  %58 = icmp eq i8* %56, %57
  br i1 %58, label %59, label %64

59:                                               ; preds = %55
  %60 = load i8*, i8** %6, align 8
  %61 = load i8, i8* %60, align 1
  %62 = sext i8 %61 to i32
  %63 = call i32 (i8*, ...) @printf(i8* getelementptr inbounds ([3 x i8], [3 x i8]* @.str, i64 0, i64 0), i32 %62)
  br label %77

64:                                               ; preds = %55, %52
  %65 = load i32, i32* %4, align 4
  %66 = icmp eq i32 %65, 1
  br i1 %66, label %67, label %76

67:                                               ; preds = %64
  %68 = load i8*, i8** %6, align 8
  %69 = getelementptr inbounds [300 x i8], [300 x i8]* %5, i64 0, i64 0
  %70 = icmp ne i8* %68, %69
  br i1 %70, label %71, label %76

71:                                               ; preds = %67
  %72 = load i8*, i8** %6, align 8
  %73 = load i8, i8* %72, align 1
  %74 = sext i8 %73 to i32
  %75 = call i32 (i8*, ...) @printf(i8* getelementptr inbounds ([4 x i8], [4 x i8]* @.str.1, i64 0, i64 0), i32 %74)
  br label %76

76:                                               ; preds = %71, %67, %64
  br label %77

77:                                               ; preds = %76, %59
  br label %78

78:                                               ; preds = %77
  %79 = load i8*, i8** %6, align 8
  %80 = getelementptr inbounds i8, i8* %79, i32 1
  store i8* %80, i8** %6, align 8
  br label %26

81:                                               ; preds = %26
  ret void
}

declare dso_local i32 @__isoc99_scanf(i8*, ...) #1

; Function Attrs: nounwind readonly
declare dso_local i64 @strlen(i8*) #2

declare dso_local i32 @printf(i8*, ...) #1


!llvm.module.flags = !{!0}
!llvm.ident = !{!1}

!0 = !{i32 1, !"wchar_size", i32 4}
!1 = !{!"clang version 10.0.0-4ubuntu1 "}
