; ModuleID = 'source-C-CXX/52/585.c'
source_filename = "source-C-CXX/52/585.c"
target datalayout = "e-m:e-p270:32:32-p271:32:32-p272:64:64-i64:64-f80:128-n8:16:32:64-S128"
target triple = "x86_64-pc-linux-gnu"

@.str = private unnamed_addr constant [3 x i8] c"%d\00", align 1
@.str.1 = private unnamed_addr constant [4 x i8] c",%d\00", align 1

; Function Attrs: nofree nounwind sspstrong uwtable
define dso_local void @main() local_unnamed_addr #0 {
  %1 = alloca i32, align 4
  %2 = alloca [300 x i8], align 16
  %3 = bitcast i32* %1 to i8*
  call void @llvm.lifetime.start.p0i8(i64 4, i8* nonnull %3) #5
  %4 = getelementptr inbounds [300 x i8], [300 x i8]* %2, i64 0, i64 0
  call void @llvm.lifetime.start.p0i8(i64 300, i8* nonnull %4) #5
  %5 = call i32 (i8*, ...) @__isoc99_scanf(i8* getelementptr inbounds ([3 x i8], [3 x i8]* @.str, i64 0, i64 0), i32* nonnull %1)
  %6 = load i32, i32* %1, align 4, !tbaa !5
  %7 = icmp sgt i32 %6, 0
  br i1 %7, label %8, label %16

8:                                                ; preds = %0, %8
  %9 = phi i64 [ %12, %8 ], [ 0, %0 ]
  %10 = getelementptr inbounds [300 x i8], [300 x i8]* %2, i64 0, i64 %9
  %11 = call i32 (i8*, ...) @__isoc99_scanf(i8* getelementptr inbounds ([3 x i8], [3 x i8]* @.str, i64 0, i64 0), i8* nonnull %10)
  %12 = add nuw nsw i64 %9, 1
  %13 = load i32, i32* %1, align 4, !tbaa !5
  %14 = sext i32 %13 to i64
  %15 = icmp slt i64 %12, %14
  br i1 %15, label %8, label %16, !llvm.loop !9

16:                                               ; preds = %8, %0
  %17 = call i64 @strlen(i8* noundef nonnull %4) #6
  %18 = trunc i64 %17 to i32
  %19 = icmp sgt i32 %18, 0
  br i1 %19, label %20, label %49

20:                                               ; preds = %16
  %21 = shl i64 %17, 32
  %22 = ashr exact i64 %21, 32
  %23 = call i64 @llvm.smax.i64(i64 %22, i64 1)
  br label %24

24:                                               ; preds = %20, %44
  %25 = phi [300 x i8]* [ %2, %20 ], [ %47, %44 ]
  %26 = phi i64 [ 0, %20 ], [ %45, %44 ]
  %27 = getelementptr [300 x i8], [300 x i8]* %25, i64 0, i64 0
  %28 = icmp ult [300 x i8]* %2, %25
  br i1 %28, label %29, label %38

29:                                               ; preds = %24
  %30 = load i8, i8* %27, align 1, !tbaa !11
  br label %33

31:                                               ; preds = %33
  %32 = icmp eq i8* %37, %27
  br i1 %32, label %38, label %33, !llvm.loop !12

33:                                               ; preds = %29, %31
  %34 = phi i8* [ %4, %29 ], [ %37, %31 ]
  %35 = load i8, i8* %34, align 1, !tbaa !11
  %36 = icmp eq i8 %35, %30
  %37 = getelementptr inbounds i8, i8* %34, i64 1
  br i1 %36, label %44, label %31

38:                                               ; preds = %31, %24
  %39 = icmp eq i64 %26, 0
  %40 = load i8, i8* %27, align 1, !tbaa !11
  %41 = sext i8 %40 to i32
  %42 = select i1 %39, i8* getelementptr inbounds ([3 x i8], [3 x i8]* @.str, i64 0, i64 0), i8* getelementptr inbounds ([4 x i8], [4 x i8]* @.str.1, i64 0, i64 0)
  %43 = call i32 (i8*, ...) @printf(i8* nonnull dereferenceable(1) %42, i32 %41)
  br label %44

44:                                               ; preds = %33, %38
  %45 = add nuw nsw i64 %26, 1
  %46 = getelementptr [300 x i8], [300 x i8]* %25, i64 0, i64 1
  %47 = bitcast i8* %46 to [300 x i8]*
  %48 = icmp eq i64 %45, %23
  br i1 %48, label %49, label %24, !llvm.loop !13

49:                                               ; preds = %44, %16
  call void @llvm.lifetime.end.p0i8(i64 300, i8* nonnull %4) #5
  call void @llvm.lifetime.end.p0i8(i64 4, i8* nonnull %3) #5
  ret void
}

; Function Attrs: argmemonly mustprogress nofree nosync nounwind willreturn
declare void @llvm.lifetime.start.p0i8(i64 immarg, i8* nocapture) #1

; Function Attrs: nofree nounwind
declare noundef i32 @__isoc99_scanf(i8* nocapture noundef readonly, ...) local_unnamed_addr #2

; Function Attrs: argmemonly mustprogress nofree nounwind readonly willreturn
declare i64 @strlen(i8* nocapture) local_unnamed_addr #3

; Function Attrs: nofree nounwind
declare noundef i32 @printf(i8* nocapture noundef readonly, ...) local_unnamed_addr #2

; Function Attrs: argmemonly mustprogress nofree nosync nounwind willreturn
declare void @llvm.lifetime.end.p0i8(i64 immarg, i8* nocapture) #1

; Function Attrs: nofree nosync nounwind readnone speculatable willreturn
declare i64 @llvm.smax.i64(i64, i64) #4


!llvm.module.flags = !{!0, !1, !2, !3}
!llvm.ident = !{!4}

!0 = !{i32 1, !"wchar_size", i32 4}
!1 = !{i32 7, !"PIC Level", i32 2}
!2 = !{i32 7, !"PIE Level", i32 2}
!3 = !{i32 7, !"uwtable", i32 1}
!4 = !{!"clang version 13.0.0"}
!5 = !{!6, !6, i64 0}
!6 = !{!"int", !7, i64 0}
!7 = !{!"omnipotent char", !8, i64 0}
!8 = !{!"Simple C/C++ TBAA"}
!9 = distinct !{!9, !10}
!10 = !{!"llvm.loop.mustprogress"}
!11 = !{!7, !7, i64 0}
!12 = distinct !{!12, !10}
!13 = distinct !{!13, !10}
